; Function Attrs: mustprogress nounwind uwtable
define internal fastcc void @_ZL13getTypeStringB5cxx11PN4llvm4TypeE(ptr dead_on_unwind noalias writable align 8 %0, ptr noundef %1) unnamed_addr #0 {
  %3 = alloca %"class.std::__cxx11::basic_string", align 8
  %4 = alloca %"class.llvm::raw_string_ostream", align 8
  call void @_ZNSt7__cxx1112basic_stringIcSt11char_traitsIcESaIcEEC1Ev(ptr noundef nonnull align 8 dereferenceable(32) %3) #25
  %5 = getelementptr inbounds nuw i8, ptr %4, i64 8
  store i32 0, ptr %5, align 8
  %6 = getelementptr inbounds nuw i8, ptr %4, i64 40
  store i8 0, ptr %6, align 8
  %7 = getelementptr inbounds nuw i8, ptr %4, i64 44
  store i32 1, ptr %7, align 4
  %8 = getelementptr inbounds nuw i8, ptr %4, i64 16
  call void @llvm.memset.p0.i64(ptr noundef nonnull align 8 dereferenceable(24) %8, i8 0, i64 24, i1 false)
  store ptr getelementptr inbounds inrange(-16, 104) (i8, ptr @_ZTVN4llvm18raw_string_ostreamE, i64 16), ptr %4, align 8
  %9 = getelementptr inbounds nuw i8, ptr %4, i64 48
  store ptr %3, ptr %9, align 8
  call void @_ZN4llvm11raw_ostream16SetBufferAndModeEPcmNS0_10BufferKindE(ptr noundef nonnull align 8 dereferenceable(48) %4, ptr noundef null, i64 noundef 0, i32 noundef 0) #25
  call void @_ZNK4llvm4Type5printERNS_11raw_ostreamEbb(ptr noundef nonnull align 8 dereferenceable(24) %1, ptr noundef nonnull align 8 dereferenceable(48) %4, i1 noundef zeroext false, i1 noundef zeroext false) #25
  %10 = load ptr, ptr %9, align 8
  call void @_ZNSt7__cxx1112basic_stringIcSt11char_traitsIcESaIcEEC1ERKS4_(ptr noundef nonnull align 8 dereferenceable(32) %0, ptr noundef nonnull align 8 dereferenceable(32) %10) #25
  call void @_ZN4llvm11raw_ostreamD2Ev(ptr noundef nonnull align 8 dereferenceable(48) %4) #25
  call void @_ZNSt7__cxx1112basic_stringIcSt11char_traitsIcESaIcEED1Ev(ptr noundef nonnull align 8 dereferenceable(32) %3) #25
  ret void
}